target datalayout = "e-m:e-p270:32:32-p271:32:32-p272:64:64-i64:64-i128:128-f80:128-n8:16:32:64-S128"
target triple = "x86_64-pc-linux-gnu"

%"class.std::__cxx11::basic_string" = type { %"struct.std::__cxx11::basic_string<char>::_Alloc_hider", i64, %union.anon }
%"struct.std::__cxx11::basic_string<char>::_Alloc_hider" = type { ptr }
%union.anon = type { i64, [8 x i8] }

@.str.13 = private unnamed_addr constant [6 x i8] c"proj=\00", align 1
@.str.14 = private unnamed_addr constant [7 x i8] c"+proj=\00", align 1
@.str.15 = private unnamed_addr constant [7 x i8] c"+init=\00", align 1
@.str.16 = private unnamed_addr constant [8 x i8] c"+title=\00", align 1
@.str.17 = private unnamed_addr constant [9 x i8] c"type=crs\00", align 1
@.str.18 = private unnamed_addr constant [11 x i8] c" +type=crs\00", align 1

; Function Attrs: mustprogress nounwind uwtable
define linkonce_odr hidden noundef zeroext i1 @_ZN5osgeo4proj8internal11starts_withERKNSt7__cxx1112basic_stringIcSt11char_traitsIcESaIcEEEPKc(ptr noundef nonnull align 8 dereferenceable(32) %0, ptr noundef %1) #0 comdat {
  %3 = alloca i1, align 1
  %4 = alloca ptr, align 8
  %5 = alloca ptr, align 8
  %6 = alloca i64, align 8
  store ptr %0, ptr %4, align 8
  store ptr %1, ptr %5, align 8
  %7 = load ptr, ptr %5, align 8
  %8 = call i64 @strlen(ptr noundef %7) #7
  store i64 %8, ptr %6, align 8
  %9 = load ptr, ptr %4, align 8
  %10 = call noundef i64 @_ZNKSt7__cxx1112basic_stringIcSt11char_traitsIcESaIcEE4sizeEv(ptr noundef nonnull align 8 dereferenceable(32) %9) #19
  %11 = load i64, ptr %6, align 8
  %12 = icmp ult i64 %10, %11
  br i1 %12, label %13, label %14

13:                                               ; preds = %2
  store i1 false, ptr %3, align 1
  br label %21

14:                                               ; preds = %2
  %15 = load ptr, ptr %4, align 8
  %16 = call noundef ptr @_ZNKSt7__cxx1112basic_stringIcSt11char_traitsIcESaIcEE5c_strEv(ptr noundef nonnull align 8 dereferenceable(32) %15) #19
  %17 = load ptr, ptr %5, align 8
  %18 = load i64, ptr %6, align 8
  %19 = call i32 @memcmp(ptr noundef %16, ptr noundef %17, i64 noundef %18) #7
  %20 = icmp eq i32 %19, 0
  store i1 %20, ptr %3, align 1
  br label %21

21:                                               ; preds = %14, %13
  %22 = load i1, ptr %3, align 1
  ret i1 %22
}

; Function Attrs: mustprogress uwtable
define void @_Z25pj_add_type_crs_if_neededRKNSt7__cxx1112basic_stringIcSt11char_traitsIcESaIcEEE(ptr dead_on_unwind noalias writable sret(%"class.std::__cxx11::basic_string") align 8 %0, ptr noundef nonnull align 8 dereferenceable(32) %1) #1 personality ptr @__gxx_personality_v0 {
  %3 = alloca ptr, align 8
  %4 = alloca ptr, align 8
  %5 = alloca i1, align 1
  %6 = alloca ptr, align 8
  %7 = alloca i32, align 4
  store ptr %0, ptr %3, align 8
  store ptr %1, ptr %4, align 8
  store i1 false, ptr %5, align 1
  %8 = load ptr, ptr %4, align 8
  call void @_ZNSt7__cxx1112basic_stringIcSt11char_traitsIcESaIcEEC1ERKS4_(ptr noundef nonnull align 8 dereferenceable(32) %0, ptr noundef nonnull align 8 dereferenceable(32) %8)
  %9 = load ptr, ptr %4, align 8
  %10 = call noundef zeroext i1 @_ZN5osgeo4proj8internal11starts_withERKNSt7__cxx1112basic_stringIcSt11char_traitsIcESaIcEEEPKc(ptr noundef nonnull align 8 dereferenceable(32) %9, ptr noundef @.str.13) #19
  br i1 %10, label %20, label %11

11:                                               ; preds = %2
  %12 = load ptr, ptr %4, align 8
  %13 = call noundef zeroext i1 @_ZN5osgeo4proj8internal11starts_withERKNSt7__cxx1112basic_stringIcSt11char_traitsIcESaIcEEEPKc(ptr noundef nonnull align 8 dereferenceable(32) %12, ptr noundef @.str.14) #19
  br i1 %13, label %20, label %14

14:                                               ; preds = %11
  %15 = load ptr, ptr %4, align 8
  %16 = call noundef zeroext i1 @_ZN5osgeo4proj8internal11starts_withERKNSt7__cxx1112basic_stringIcSt11char_traitsIcESaIcEEEPKc(ptr noundef nonnull align 8 dereferenceable(32) %15, ptr noundef @.str.15) #19
  br i1 %16, label %20, label %17

17:                                               ; preds = %14
  %18 = load ptr, ptr %4, align 8
  %19 = call noundef zeroext i1 @_ZN5osgeo4proj8internal11starts_withERKNSt7__cxx1112basic_stringIcSt11char_traitsIcESaIcEEEPKc(ptr noundef nonnull align 8 dereferenceable(32) %18, ptr noundef @.str.16) #19
  br i1 %19, label %20, label %31

20:                                               ; preds = %17, %14, %11, %2
  %21 = load ptr, ptr %4, align 8
  %22 = call noundef i64 @_ZNKSt7__cxx1112basic_stringIcSt11char_traitsIcESaIcEE4findEPKcm(ptr noundef nonnull align 8 dereferenceable(32) %21, ptr noundef @.str.17, i64 noundef 0) #19
  %23 = icmp eq i64 %22, -1
  br i1 %23, label %24, label %31

24:                                               ; preds = %20
  %25 = invoke noundef nonnull align 8 dereferenceable(32) ptr @_ZNSt7__cxx1112basic_stringIcSt11char_traitsIcESaIcEEpLEPKc(ptr noundef nonnull align 8 dereferenceable(32) %0, ptr noundef @.str.18)
          to label %26 unwind label %27

26:                                               ; preds = %24
  br label %31

27:                                               ; preds = %24
  %28 = landingpad { ptr, i32 }
          cleanup
  %29 = extractvalue { ptr, i32 } %28, 0
  store ptr %29, ptr %6, align 8
  %30 = extractvalue { ptr, i32 } %28, 1
  store i32 %30, ptr %7, align 4
  call void @_ZNSt7__cxx1112basic_stringIcSt11char_traitsIcESaIcEED1Ev(ptr noundef nonnull align 8 dereferenceable(32) %0) #19
  br label %35

31:                                               ; preds = %26, %20, %17
  store i1 true, ptr %5, align 1
  %32 = load i1, ptr %5, align 1
  br i1 %32, label %34, label %33

33:                                               ; preds = %31
  call void @_ZNSt7__cxx1112basic_stringIcSt11char_traitsIcESaIcEED1Ev(ptr noundef nonnull align 8 dereferenceable(32) %0) #19
  br label %34

34:                                               ; preds = %33, %31
  ret void

35:                                               ; preds = %27
  %36 = load ptr, ptr %6, align 8
  %37 = load i32, ptr %7, align 4
  %38 = insertvalue { ptr, i32 } poison, ptr %36, 0
  %39 = insertvalue { ptr, i32 } %38, i32 %37, 1
  resume { ptr, i32 } %39
}