; Function Attrs: mustprogress uwtable
define void @_Z25pj_add_type_crs_if_neededRKNSt7__cxx1112basic_stringIcSt11char_traitsIcESaIcEEE(ptr dead_on_unwind noalias nonnull writable sret(%"class.std::__cxx11::basic_string") align 8 %0, ptr noundef nonnull align 8 dereferenceable(32) %1) local_unnamed_addr #1 personality ptr @__gxx_personality_v0 {
  tail call void @_ZNSt7__cxx1112basic_stringIcSt11char_traitsIcESaIcEEC1ERKS4_(ptr noundef nonnull align 8 dereferenceable(32) %0, ptr noundef nonnull align 8 dereferenceable(32) %1)
  %3 = tail call noundef i64 @_ZNKSt7__cxx1112basic_stringIcSt11char_traitsIcESaIcEE4sizeEv(ptr noundef nonnull align 8 dereferenceable(32) %1) #33
  %4 = icmp ult i64 %3, 5
  br i1 %4, label %_ZN5osgeo4proj8internal11starts_withERKNSt7__cxx1112basic_stringIcSt11char_traitsIcESaIcEEEPKc.exit.thread, label %_ZN5osgeo4proj8internal11starts_withERKNSt7__cxx1112basic_stringIcSt11char_traitsIcESaIcEEEPKc.exit

_ZN5osgeo4proj8internal11starts_withERKNSt7__cxx1112basic_stringIcSt11char_traitsIcESaIcEEEPKc.exit: ; preds = %2
  %5 = tail call noundef ptr @_ZNKSt7__cxx1112basic_stringIcSt11char_traitsIcESaIcEE5c_strEv(ptr noundef nonnull align 8 dereferenceable(32) %1) #33
  %bcmp.i = tail call i32 @bcmp(ptr noundef nonnull dereferenceable(5) %5, ptr noundef nonnull dereferenceable(5) @.str.13, i64 5)
  %6 = icmp eq i32 %bcmp.i, 0
  br i1 %6, label %19, label %_ZN5osgeo4proj8internal11starts_withERKNSt7__cxx1112basic_stringIcSt11char_traitsIcESaIcEEEPKc.exit.thread

_ZN5osgeo4proj8internal11starts_withERKNSt7__cxx1112basic_stringIcSt11char_traitsIcESaIcEEEPKc.exit.thread: ; preds = %2, %_ZN5osgeo4proj8internal11starts_withERKNSt7__cxx1112basic_stringIcSt11char_traitsIcESaIcEEEPKc.exit
  %7 = tail call noundef i64 @_ZNKSt7__cxx1112basic_stringIcSt11char_traitsIcESaIcEE4sizeEv(ptr noundef nonnull align 8 dereferenceable(32) %1) #33
  %8 = icmp ult i64 %7, 6
  br i1 %8, label %_ZN5osgeo4proj8internal11starts_withERKNSt7__cxx1112basic_stringIcSt11char_traitsIcESaIcEEEPKc.exit10.thread, label %_ZN5osgeo4proj8internal11starts_withERKNSt7__cxx1112basic_stringIcSt11char_traitsIcESaIcEEEPKc.exit10

_ZN5osgeo4proj8internal11starts_withERKNSt7__cxx1112basic_stringIcSt11char_traitsIcESaIcEEEPKc.exit10: ; preds = %_ZN5osgeo4proj8internal11starts_withERKNSt7__cxx1112basic_stringIcSt11char_traitsIcESaIcEEEPKc.exit.thread
  %9 = tail call noundef ptr @_ZNKSt7__cxx1112basic_stringIcSt11char_traitsIcESaIcEE5c_strEv(ptr noundef nonnull align 8 dereferenceable(32) %1) #33
  %bcmp.i8 = tail call i32 @bcmp(ptr noundef nonnull dereferenceable(6) %9, ptr noundef nonnull dereferenceable(6) @.str.14, i64 6)
  %10 = icmp eq i32 %bcmp.i8, 0
  br i1 %10, label %19, label %_ZN5osgeo4proj8internal11starts_withERKNSt7__cxx1112basic_stringIcSt11char_traitsIcESaIcEEEPKc.exit10.thread

_ZN5osgeo4proj8internal11starts_withERKNSt7__cxx1112basic_stringIcSt11char_traitsIcESaIcEEEPKc.exit10.thread: ; preds = %_ZN5osgeo4proj8internal11starts_withERKNSt7__cxx1112basic_stringIcSt11char_traitsIcESaIcEEEPKc.exit.thread, %_ZN5osgeo4proj8internal11starts_withERKNSt7__cxx1112basic_stringIcSt11char_traitsIcESaIcEEEPKc.exit10
  %11 = tail call noundef i64 @_ZNKSt7__cxx1112basic_stringIcSt11char_traitsIcESaIcEE4sizeEv(ptr noundef nonnull align 8 dereferenceable(32) %1) #33
  %12 = icmp ult i64 %11, 6
  br i1 %12, label %_ZN5osgeo4proj8internal11starts_withERKNSt7__cxx1112basic_stringIcSt11char_traitsIcESaIcEEEPKc.exit13.thread, label %_ZN5osgeo4proj8internal11starts_withERKNSt7__cxx1112basic_stringIcSt11char_traitsIcESaIcEEEPKc.exit13

_ZN5osgeo4proj8internal11starts_withERKNSt7__cxx1112basic_stringIcSt11char_traitsIcESaIcEEEPKc.exit13: ; preds = %_ZN5osgeo4proj8internal11starts_withERKNSt7__cxx1112basic_stringIcSt11char_traitsIcESaIcEEEPKc.exit10.thread
  %13 = tail call noundef ptr @_ZNKSt7__cxx1112basic_stringIcSt11char_traitsIcESaIcEE5c_strEv(ptr noundef nonnull align 8 dereferenceable(32) %1) #33
  %bcmp.i11 = tail call i32 @bcmp(ptr noundef nonnull dereferenceable(6) %13, ptr noundef nonnull dereferenceable(6) @.str.15, i64 6)
  %14 = icmp eq i32 %bcmp.i11, 0
  br i1 %14, label %19, label %_ZN5osgeo4proj8internal11starts_withERKNSt7__cxx1112basic_stringIcSt11char_traitsIcESaIcEEEPKc.exit13.thread

_ZN5osgeo4proj8internal11starts_withERKNSt7__cxx1112basic_stringIcSt11char_traitsIcESaIcEEEPKc.exit13.thread: ; preds = %_ZN5osgeo4proj8internal11starts_withERKNSt7__cxx1112basic_stringIcSt11char_traitsIcESaIcEEEPKc.exit10.thread, %_ZN5osgeo4proj8internal11starts_withERKNSt7__cxx1112basic_stringIcSt11char_traitsIcESaIcEEEPKc.exit13
  %15 = tail call noundef i64 @_ZNKSt7__cxx1112basic_stringIcSt11char_traitsIcESaIcEE4sizeEv(ptr noundef nonnull align 8 dereferenceable(32) %1) #33
  %16 = icmp ult i64 %15, 7
  br i1 %16, label %_ZN5osgeo4proj8internal11starts_withERKNSt7__cxx1112basic_stringIcSt11char_traitsIcESaIcEEEPKc.exit16.thread, label %_ZN5osgeo4proj8internal11starts_withERKNSt7__cxx1112basic_stringIcSt11char_traitsIcESaIcEEEPKc.exit16

_ZN5osgeo4proj8internal11starts_withERKNSt7__cxx1112basic_stringIcSt11char_traitsIcESaIcEEEPKc.exit16: ; preds = %_ZN5osgeo4proj8internal11starts_withERKNSt7__cxx1112basic_stringIcSt11char_traitsIcESaIcEEEPKc.exit13.thread
  %17 = tail call noundef ptr @_ZNKSt7__cxx1112basic_stringIcSt11char_traitsIcESaIcEE5c_strEv(ptr noundef nonnull align 8 dereferenceable(32) %1) #33
  %bcmp.i14 = tail call i32 @bcmp(ptr noundef nonnull dereferenceable(7) %17, ptr noundef nonnull dereferenceable(7) @.str.16, i64 7)
  %18 = icmp eq i32 %bcmp.i14, 0
  br i1 %18, label %19, label %_ZN5osgeo4proj8internal11starts_withERKNSt7__cxx1112basic_stringIcSt11char_traitsIcESaIcEEEPKc.exit16.thread

19:                                               ; preds = %_ZN5osgeo4proj8internal11starts_withERKNSt7__cxx1112basic_stringIcSt11char_traitsIcESaIcEEEPKc.exit16, %_ZN5osgeo4proj8internal11starts_withERKNSt7__cxx1112basic_stringIcSt11char_traitsIcESaIcEEEPKc.exit13, %_ZN5osgeo4proj8internal11starts_withERKNSt7__cxx1112basic_stringIcSt11char_traitsIcESaIcEEEPKc.exit10, %_ZN5osgeo4proj8internal11starts_withERKNSt7__cxx1112basic_stringIcSt11char_traitsIcESaIcEEEPKc.exit
  %20 = tail call noundef i64 @_ZNKSt7__cxx1112basic_stringIcSt11char_traitsIcESaIcEE4findEPKcm(ptr noundef nonnull align 8 dereferenceable(32) %1, ptr noundef nonnull @.str.17, i64 noundef 0) #33
  %21 = icmp eq i64 %20, -1
  br i1 %21, label %22, label %_ZN5osgeo4proj8internal11starts_withERKNSt7__cxx1112basic_stringIcSt11char_traitsIcESaIcEEEPKc.exit16.thread

22:                                               ; preds = %19
  %23 = invoke noundef nonnull align 8 dereferenceable(32) ptr @_ZNSt7__cxx1112basic_stringIcSt11char_traitsIcESaIcEEpLEPKc(ptr noundef nonnull align 8 dereferenceable(32) %0, ptr noundef nonnull @.str.18)
          to label %_ZN5osgeo4proj8internal11starts_withERKNSt7__cxx1112basic_stringIcSt11char_traitsIcESaIcEEEPKc.exit16.thread unwind label %24

24:                                               ; preds = %22
  %25 = landingpad { ptr, i32 }
          cleanup
  tail call void @_ZNSt7__cxx1112basic_stringIcSt11char_traitsIcESaIcEED1Ev(ptr noundef nonnull align 8 dereferenceable(32) %0) #33
  resume { ptr, i32 } %25

_ZN5osgeo4proj8internal11starts_withERKNSt7__cxx1112basic_stringIcSt11char_traitsIcESaIcEEEPKc.exit16.thread: ; preds = %_ZN5osgeo4proj8internal11starts_withERKNSt7__cxx1112basic_stringIcSt11char_traitsIcESaIcEEEPKc.exit13.thread, %_ZN5osgeo4proj8internal11starts_withERKNSt7__cxx1112basic_stringIcSt11char_traitsIcESaIcEEEPKc.exit16, %19, %22
  ret void
}